; Function Attrs: mustprogress nofree nounwind uwtable
define dso_local noundef nonnull align 8 dereferenceable(8) ptr @_ZN8simdjson25get_active_implementationEv() local_unnamed_addr #13 personality ptr @__gxx_personality_v0 {
  %1 = load atomic i8, ptr @_ZGVZN8simdjson25get_active_implementationEvE59detect_best_supported_implementation_on_first_use_singleton acquire, align 8
  %2 = icmp eq i8 %1, 0
  br i1 %2, label %3, label %7, !prof !51

3:                                                ; preds = %0
  %4 = tail call i32 @__cxa_guard_acquire(ptr nonnull @_ZGVZN8simdjson25get_active_implementationEvE59detect_best_supported_implementation_on_first_use_singleton) #45
  %.not = icmp eq i32 %4, 0
  br i1 %.not, label %7, label %5

5:                                                ; preds = %3
  store i64 23, ptr getelementptr inbounds nuw (i8, ptr @_ZZN8simdjson25get_active_implementationEvE59detect_best_supported_implementation_on_first_use_singleton, i64 8), align 8, !tbaa !11
  store ptr @.str.43, ptr getelementptr inbounds nuw (i8, ptr @_ZZN8simdjson25get_active_implementationEvE59detect_best_supported_implementation_on_first_use_singleton, i64 16), align 8, !tbaa !18
  store i64 53, ptr getelementptr inbounds nuw (i8, ptr @_ZZN8simdjson25get_active_implementationEvE59detect_best_supported_implementation_on_first_use_singleton, i64 24), align 8, !tbaa !11
  store ptr @.str.44, ptr getelementptr inbounds nuw (i8, ptr @_ZZN8simdjson25get_active_implementationEvE59detect_best_supported_implementation_on_first_use_singleton, i64 32), align 8, !tbaa !18
  store i32 0, ptr getelementptr inbounds nuw (i8, ptr @_ZZN8simdjson25get_active_implementationEvE59detect_best_supported_implementation_on_first_use_singleton, i64 40), align 8, !tbaa !52
  store ptr getelementptr inbounds nuw inrange(-16, 48) (i8, ptr @_ZTVN8simdjson8internal49detect_best_supported_implementation_on_first_useE, i64 16), ptr @_ZZN8simdjson25get_active_implementationEvE59detect_best_supported_implementation_on_first_use_singleton, align 8, !tbaa !47
  %6 = tail call ptr @llvm.invariant.start.p0(i64 48, ptr nonnull @_ZZN8simdjson25get_active_implementationEvE59detect_best_supported_implementation_on_first_use_singleton)
  tail call void @__cxa_guard_release(ptr nonnull @_ZGVZN8simdjson25get_active_implementationEvE59detect_best_supported_implementation_on_first_use_singleton) #45
  br label %7

7:                                                ; preds = %5, %3, %0
  %8 = load atomic i8, ptr @_ZGVZN8simdjson25get_active_implementationEvE21active_implementation acquire, align 8
  %9 = icmp eq i8 %8, 0
  br i1 %9, label %10, label %13, !prof !51

10:                                               ; preds = %7
  %11 = tail call i32 @__cxa_guard_acquire(ptr nonnull @_ZGVZN8simdjson25get_active_implementationEvE21active_implementation) #45
  %.not1 = icmp eq i32 %11, 0
  br i1 %.not1, label %13, label %12

12:                                               ; preds = %10
  store ptr @_ZZN8simdjson25get_active_implementationEvE59detect_best_supported_implementation_on_first_use_singleton, ptr @_ZZN8simdjson25get_active_implementationEvE21active_implementation, align 8, !tbaa !64
  tail call void @__cxa_guard_release(ptr nonnull @_ZGVZN8simdjson25get_active_implementationEvE21active_implementation) #45
  br label %13

13:                                               ; preds = %12, %10, %7
  ret ptr @_ZZN8simdjson25get_active_implementationEvE21active_implementation
}